; Function Attrs: mustprogress uwtable
define hidden void @_ZNK2cv10SCDMatcher15buildCostMatrixERKNS_3MatES3_RS1_RNS_3PtrINS_22HistogramCostExtractorEEE(ptr noundef nonnull readnone align 4 captures(none) dereferenceable(4) %0, ptr noundef nonnull align 8 dereferenceable(96) %1, ptr noundef nonnull align 8 dereferenceable(96) %2, ptr noundef nonnull align 8 dereferenceable(96) %3, ptr noundef nonnull readonly align 8 captures(none) dereferenceable(16) %4) local_unnamed_addr #3 align 2 personality ptr @__gxx_personality_v0 {
  %6 = alloca %"class.cv::utils::trace::details::Region", align 8
  %7 = alloca %"class.cv::_InputArray", align 8
  %8 = alloca %"class.cv::_InputArray", align 8
  %9 = alloca %"class.cv::_OutputArray", align 8
  call void @llvm.lifetime.start.p0(i64 16, ptr nonnull %6) #24
  call void @_ZN2cv5utils5trace7details6RegionC1ERKNS3_21LocationStaticStorageE(ptr noundef nonnull align 8 dereferenceable(12) %6, ptr noundef nonnull align 8 dereferenceable(32) @_ZZNK2cv10SCDMatcher15buildCostMatrixERKNS_3MatES3_RS1_RNS_3PtrINS_22HistogramCostExtractorEEEE25__cv_trace_location_fn505)
  %10 = load ptr, ptr %4, align 8, !tbaa !141
  call void @llvm.lifetime.start.p0(i64 24, ptr nonnull %7) #24
  %11 = getelementptr inbounds nuw i8, ptr %7, i64 16
  store i32 0, ptr %11, align 8, !tbaa !82
  %12 = getelementptr inbounds nuw i8, ptr %7, i64 20
  store i32 0, ptr %12, align 4, !tbaa !83
  store i32 16842752, ptr %7, align 8, !tbaa !25
  %13 = getelementptr inbounds nuw i8, ptr %7, i64 8
  store ptr %1, ptr %13, align 8, !tbaa !3
  call void @llvm.lifetime.start.p0(i64 24, ptr nonnull %8) #24
  %14 = getelementptr inbounds nuw i8, ptr %8, i64 16
  store i32 0, ptr %14, align 8, !tbaa !82
  %15 = getelementptr inbounds nuw i8, ptr %8, i64 20
  store i32 0, ptr %15, align 4, !tbaa !83
  store i32 16842752, ptr %8, align 8, !tbaa !25
  %16 = getelementptr inbounds nuw i8, ptr %8, i64 8
  store ptr %2, ptr %16, align 8, !tbaa !3
  call void @llvm.lifetime.start.p0(i64 24, ptr nonnull %9) #24
  %17 = getelementptr inbounds nuw i8, ptr %9, i64 8
  %18 = getelementptr inbounds nuw i8, ptr %9, i64 16
  store i64 0, ptr %18, align 8
  store i32 33619968, ptr %9, align 8, !tbaa !25
  store ptr %3, ptr %17, align 8, !tbaa !3
  %19 = load ptr, ptr %10, align 8, !tbaa !80
  %20 = getelementptr inbounds nuw i8, ptr %19, i64 64
  %21 = load ptr, ptr %20, align 8
  invoke void %21(ptr noundef nonnull align 8 dereferenceable(8) %10, ptr noundef nonnull align 8 dereferenceable(24) %7, ptr noundef nonnull align 8 dereferenceable(24) %8, ptr noundef nonnull align 8 dereferenceable(24) %9)
          to label %22 unwind label %29

22:                                               ; preds = %5
  call void @llvm.lifetime.end.p0(i64 24, ptr nonnull %9) #24
  call void @llvm.lifetime.end.p0(i64 24, ptr nonnull %8) #24
  call void @llvm.lifetime.end.p0(i64 24, ptr nonnull %7) #24
  %23 = getelementptr inbounds nuw i8, ptr %6, i64 8
  %24 = load i32, ptr %23, align 8, !tbaa !123
  %.not.i = icmp eq i32 %24, 0
  br i1 %.not.i, label %_ZN2cv5utils5trace7details6RegionD2Ev.exit, label %25

25:                                               ; preds = %22
  invoke void @_ZN2cv5utils5trace7details6Region7destroyEv(ptr noundef nonnull align 8 dereferenceable(12) %6)
          to label %_ZN2cv5utils5trace7details6RegionD2Ev.exit unwind label %26

26:                                               ; preds = %25
  %27 = landingpad { ptr, i32 }
          catch ptr null
  %28 = extractvalue { ptr, i32 } %27, 0
  call void @__clang_call_terminate(ptr %28) #27
  unreachable

_ZN2cv5utils5trace7details6RegionD2Ev.exit:       ; preds = %22, %25
  call void @llvm.lifetime.end.p0(i64 16, ptr nonnull %6) #24
  ret void

29:                                               ; preds = %5
  %30 = landingpad { ptr, i32 }
          cleanup
  call void @llvm.lifetime.end.p0(i64 24, ptr nonnull %9) #24
  call void @llvm.lifetime.end.p0(i64 24, ptr nonnull %8) #24
  call void @llvm.lifetime.end.p0(i64 24, ptr nonnull %7) #24
  call void @_ZN2cv5utils5trace7details6RegionD2Ev(ptr noundef nonnull align 8 dereferenceable(12) %6) #24
  call void @llvm.lifetime.end.p0(i64 16, ptr nonnull %6) #24
  resume { ptr, i32 } %30
}